; Function Attrs: mustprogress nofree norecurse nosync nounwind willreturn memory(argmem: write) uwtable
define void @pg_prng_fseed(ptr noundef writeonly captures(none) initializes((0, 16)) %0, double noundef %1) local_unnamed_addr #0 {
  %3 = fmul double %1, 0x432FFFFFFFFFFFFE
  %4 = fptosi double %3 to i64
  %5 = add i64 %4, -7046029254386353131
  %6 = lshr i64 %5, 30
  %7 = xor i64 %6, %5
  %8 = mul i64 %7, -4658895280553007687
  %9 = lshr i64 %8, 27
  %10 = xor i64 %9, %8
  %11 = mul i64 %10, -7723592293110705685
  %12 = lshr i64 %11, 31
  %13 = xor i64 %12, %11
  store i64 %13, ptr %0, align 8
  %14 = add i64 %4, 4354685564936845354
  %15 = lshr i64 %14, 30
  %16 = xor i64 %15, %14
  %17 = mul i64 %16, -4658895280553007687
  %18 = lshr i64 %17, 27
  %19 = xor i64 %18, %17
  %20 = mul i64 %19, -7723592293110705685
  %21 = lshr i64 %20, 31
  %22 = xor i64 %21, %20
  %23 = getelementptr inbounds nuw i8, ptr %0, i64 8
  store i64 %22, ptr %23, align 8
  %24 = or i64 %5, %14
  %or.cond.i = icmp eq i64 %24, 0
  br i1 %or.cond.i, label %25, label %pg_prng_seed.exit, !prof !3

25:                                               ; preds = %2
  store i64 6364136223846793005, ptr %0, align 8
  store i64 1442695040888963407, ptr %23, align 8
  br label %pg_prng_seed.exit

pg_prng_seed.exit:                                ; preds = %2, %25
  ret void
}